target datalayout = "e-m:e-p270:32:32-p271:32:32-p272:64:64-i64:64-i128:128-f80:128-n8:16:32:64-S128"
target triple = "x86_64-pc-linux-gnu"

%class.Node = type <{ ptr, ptr, ptr, i32, i32, i32, i32, i32, i32, i32, [4 x i8] }>
%class.Type = type <{ ptr, ptr, i32, [4 x i8] }>
%class.Type.base = type <{ ptr, ptr, i32 }>
%class.TypePtr = type <{ %class.Type.base, [4 x i8], ptr, i32, i32, i32, [4 x i8] }>

; Function Attrs: mustprogress nounwind uwtable
define linkonce_odr hidden noundef zeroext i1 @_ZNK4Node12is_SpillCopyEv(ptr noundef nonnull align 8 dereferenceable(52) %0) #1 comdat align 2 {
  %2 = alloca ptr, align 8
  store ptr %0, ptr %2, align 8
  %3 = load ptr, ptr %2, align 8
  %4 = getelementptr inbounds %class.Node, ptr %3, i32 0, i32 8
  %5 = load i32, ptr %4, align 4
  %6 = and i32 %5, 31
  %7 = icmp eq i32 %6, 18
  ret i1 %7
}

; Function Attrs: mustprogress nounwind uwtable
define internal noundef zeroext i1 @_ZL10is_unknownl(i64 noundef %0) #1 {
  %2 = alloca i64, align 8
  store i64 %0, ptr %2, align 8
  %3 = load i64, ptr %2, align 8
  %4 = icmp eq i64 %3, -2000000001
  ret i1 %4
}

; Function Attrs: mustprogress nounwind uwtable
define internal noundef ptr @_ZL17look_through_nodePK4Node(ptr noundef %0) #1 {
  %2 = alloca ptr, align 8
  %3 = alloca ptr, align 8
  %4 = alloca ptr, align 8
  store ptr %0, ptr %2, align 8
  br label %5

5:                                                ; preds = %41, %1
  %6 = load ptr, ptr %2, align 8
  %7 = icmp ne ptr %6, null
  br i1 %7, label %8, label %42

8:                                                ; preds = %5
  %9 = load ptr, ptr %2, align 8
  store ptr %9, ptr %3, align 8
  %10 = load ptr, ptr %2, align 8
  %11 = call noundef zeroext i1 @_ZNK4Node7is_MachEv(ptr noundef nonnull align 8 dereferenceable(52) %10)
  br i1 %11, label %12, label %31

12:                                               ; preds = %8
  %13 = load ptr, ptr %2, align 8
  %14 = call noundef ptr @_ZNK4Node7as_MachEv(ptr noundef nonnull align 8 dereferenceable(52) %13)
  store ptr %14, ptr %4, align 8
  %15 = load ptr, ptr %4, align 8
  %16 = load ptr, ptr %15, align 8
  %17 = getelementptr inbounds ptr, ptr %16, i64 41
  %18 = load ptr, ptr %17, align 8
  %19 = call noundef i32 %18(ptr noundef nonnull align 8 dereferenceable(64) %15)
  %20 = icmp eq i32 %19, 63
  br i1 %20, label %21, label %24

21:                                               ; preds = %12
  %22 = load ptr, ptr %2, align 8
  %23 = call noundef ptr @_ZNK4Node2inEj(ptr noundef nonnull align 8 dereferenceable(52) %22, i32 noundef 1)
  store ptr %23, ptr %3, align 8
  br label %24

24:                                               ; preds = %21, %12
  %25 = load ptr, ptr %4, align 8
  %26 = call noundef zeroext i1 @_ZNK4Node12is_SpillCopyEv(ptr noundef nonnull align 8 dereferenceable(52) %25)
  br i1 %26, label %27, label %30

27:                                               ; preds = %24
  %28 = load ptr, ptr %2, align 8
  %29 = call noundef ptr @_ZNK4Node2inEj(ptr noundef nonnull align 8 dereferenceable(52) %28, i32 noundef 1)
  store ptr %29, ptr %3, align 8
  br label %30

30:                                               ; preds = %27, %24
  br label %31

31:                                               ; preds = %30, %8
  %32 = load ptr, ptr %3, align 8
  %33 = load ptr, ptr %2, align 8
  %34 = icmp eq ptr %32, %33
  br i1 %34, label %38, label %35

35:                                               ; preds = %31
  %36 = load ptr, ptr %3, align 8
  %37 = icmp eq ptr %36, null
  br i1 %37, label %38, label %39

38:                                               ; preds = %35, %31
  br label %42

39:                                               ; preds = %35
  %40 = load ptr, ptr %3, align 8
  store ptr %40, ptr %2, align 8
  br label %41

41:                                               ; preds = %39
  br label %5, !llvm.loop !22

42:                                               ; preds = %38, %5
  %43 = load ptr, ptr %2, align 8
  ret ptr %43
}

; Function Attrs: mustprogress nounwind uwtable
define internal noundef zeroext i1 @_ZL11is_concretel(i64 noundef %0) #1 {
  %2 = alloca i64, align 8
  store i64 %0, ptr %2, align 8
  %3 = load i64, ptr %2, align 8
  %4 = call noundef zeroext i1 @_ZL12is_undefinedl(i64 noundef %3)
  br i1 %4, label %9, label %5

5:                                                ; preds = %1
  %6 = load i64, ptr %2, align 8
  %7 = call noundef zeroext i1 @_ZL10is_unknownl(i64 noundef %6)
  %8 = xor i1 %7, true
  br label %9

9:                                                ; preds = %5, %1
  %10 = phi i1 [ false, %1 ], [ %8, %5 ]
  ret i1 %10
}

; Function Attrs: mustprogress nounwind uwtable
define internal noundef zeroext i1 @_ZL12is_undefinedl(i64 noundef %0) #1 {
  %2 = alloca i64, align 8
  store i64 %0, ptr %2, align 8
  %3 = load i64, ptr %2, align 8
  %4 = icmp eq i64 %3, -2000000000
  ret i1 %4
}

; Function Attrs: mustprogress nounwind uwtable
define linkonce_odr hidden noundef ptr @_ZNK4Node2inEj(ptr noundef nonnull align 8 dereferenceable(52) %0, i32 noundef %1) #1 comdat align 2 {
  %3 = alloca ptr, align 8
  %4 = alloca i32, align 4
  store ptr %0, ptr %3, align 8
  store i32 %1, ptr %4, align 4
  %5 = load ptr, ptr %3, align 8
  %6 = getelementptr inbounds %class.Node, ptr %5, i32 0, i32 1
  %7 = load ptr, ptr %6, align 8
  %8 = load i32, ptr %4, align 4
  %9 = zext i32 %8 to i64
  %10 = getelementptr inbounds ptr, ptr %7, i64 %9
  %11 = load ptr, ptr %10, align 8
  ret ptr %11
}

; Function Attrs: mustprogress nounwind uwtable
define linkonce_odr hidden noundef i32 @_ZNK7TypePtr6offsetEv(ptr noundef nonnull align 8 dereferenceable(44) %0) #1 comdat align 2 {
  %2 = alloca ptr, align 8
  store ptr %0, ptr %2, align 8
  %3 = load ptr, ptr %2, align 8
  %4 = getelementptr inbounds %class.TypePtr, ptr %3, i32 0, i32 4
  %5 = load i32, ptr %4, align 4
  ret i32 %5
}

; Function Attrs: mustprogress nounwind uwtable
define linkonce_odr hidden noundef ptr @_ZNK4Type10isa_oopptrEv(ptr noundef nonnull align 8 dereferenceable(20) %0) #1 comdat align 2 {
  %2 = alloca ptr, align 8
  store ptr %0, ptr %2, align 8
  %3 = load ptr, ptr %2, align 8
  %4 = getelementptr inbounds %class.Type, ptr %3, i32 0, i32 2
  %5 = load i32, ptr %4, align 8
  %6 = icmp sge i32 %5, 20
  br i1 %6, label %7, label %12

7:                                                ; preds = %1
  %8 = getelementptr inbounds %class.Type, ptr %3, i32 0, i32 2
  %9 = load i32, ptr %8, align 8
  %10 = icmp sle i32 %9, 22
  br i1 %10, label %11, label %12

11:                                               ; preds = %7
  br label %13

12:                                               ; preds = %7, %1
  br label %13

13:                                               ; preds = %12, %11
  %14 = phi ptr [ %3, %11 ], [ null, %12 ]
  ret ptr %14
}

; Function Attrs: mustprogress nounwind uwtable
define linkonce_odr hidden noundef ptr @_ZNK4Node7as_MachEv(ptr noundef nonnull align 8 dereferenceable(52) %0) #1 comdat align 2 {
  %2 = alloca ptr, align 8
  store ptr %0, ptr %2, align 8
  %3 = load ptr, ptr %2, align 8
  ret ptr %3
}

; Function Attrs: mustprogress nounwind uwtable
define linkonce_odr hidden noundef zeroext i1 @_ZNK4Node7is_MachEv(ptr noundef nonnull align 8 dereferenceable(52) %0) #1 comdat align 2 {
  %2 = alloca ptr, align 8
  store ptr %0, ptr %2, align 8
  %3 = load ptr, ptr %2, align 8
  %4 = getelementptr inbounds %class.Node, ptr %3, i32 0, i32 8
  %5 = load i32, ptr %4, align 4
  %6 = and i32 %5, 3
  %7 = icmp eq i32 %6, 2
  ret i1 %7
}

; Function Attrs: mustprogress nounwind uwtable
define internal noundef ptr @_ZL19get_base_and_offsetPK8MachNodeRl(ptr noundef %0, ptr noundef nonnull align 8 dereferenceable(8) %1) #1 {
  %3 = alloca ptr, align 8
  %4 = alloca ptr, align 8
  %5 = alloca ptr, align 8
  %6 = alloca ptr, align 8
  %7 = alloca ptr, align 8
  store ptr %0, ptr %4, align 8
  store ptr %1, ptr %5, align 8
  store ptr null, ptr %6, align 8
  %8 = load ptr, ptr %5, align 8
  store i64 0, ptr %8, align 8
  %9 = load ptr, ptr %4, align 8
  %10 = load ptr, ptr %5, align 8
  %11 = call noundef ptr @_ZNK8MachNode17get_base_and_dispERlRPK7TypePtr(ptr noundef nonnull align 8 dereferenceable(64) %9, ptr noundef nonnull align 8 dereferenceable(8) %10, ptr noundef nonnull align 8 dereferenceable(8) %6)
  store ptr %11, ptr %7, align 8
  %12 = load ptr, ptr %7, align 8
  %13 = icmp eq ptr %12, null
  br i1 %13, label %17, label %14

14:                                               ; preds = %2
  %15 = load ptr, ptr %7, align 8
  %16 = icmp eq ptr %15, inttoptr (i64 -1 to ptr)
  br i1 %16, label %17, label %18

17:                                               ; preds = %14, %2
  store ptr null, ptr %3, align 8
  br label %61

18:                                               ; preds = %14
  %19 = load ptr, ptr %5, align 8
  %20 = load i64, ptr %19, align 8
  %21 = icmp eq i64 %20, 0
  br i1 %21, label %22, label %45

22:                                               ; preds = %18
  %23 = load ptr, ptr %7, align 8
  %24 = call noundef zeroext i1 @_ZNK4Node7is_MachEv(ptr noundef nonnull align 8 dereferenceable(52) %23)
  br i1 %24, label %25, label %45

25:                                               ; preds = %22
  %26 = load ptr, ptr %7, align 8
  %27 = call noundef ptr @_ZNK4Node7as_MachEv(ptr noundef nonnull align 8 dereferenceable(52) %26)
  %28 = load ptr, ptr %27, align 8
  %29 = getelementptr inbounds ptr, ptr %28, i64 41
  %30 = load ptr, ptr %29, align 8
  %31 = call noundef i32 %30(ptr noundef nonnull align 8 dereferenceable(64) %27)
  %32 = icmp eq i32 %31, 25
  br i1 %32, label %33, label %45

33:                                               ; preds = %25
  %34 = load ptr, ptr %7, align 8
  %35 = load ptr, ptr %34, align 8
  %36 = getelementptr inbounds ptr, ptr %35, i64 5
  %37 = load ptr, ptr %36, align 8
  %38 = call noundef ptr %37(ptr noundef nonnull align 8 dereferenceable(52) %34)
  %39 = call noundef ptr @_ZNK4Type10isa_oopptrEv(ptr noundef nonnull align 8 dereferenceable(20) %38)
  %40 = call noundef i32 @_ZNK7TypePtr6offsetEv(ptr noundef nonnull align 8 dereferenceable(44) %39)
  %41 = sext i32 %40 to i64
  %42 = load ptr, ptr %5, align 8
  store i64 %41, ptr %42, align 8
  %43 = load ptr, ptr %7, align 8
  %44 = call noundef ptr @_ZNK4Node2inEj(ptr noundef nonnull align 8 dereferenceable(52) %43, i32 noundef 1)
  store ptr %44, ptr %7, align 8
  br label %45

45:                                               ; preds = %33, %25, %22, %18
  %46 = load ptr, ptr %5, align 8
  %47 = load i64, ptr %46, align 8
  %48 = call noundef zeroext i1 @_ZL12is_undefinedl(i64 noundef %47)
  br i1 %48, label %57, label %49

49:                                               ; preds = %45
  %50 = load ptr, ptr %5, align 8
  %51 = load i64, ptr %50, align 8
  %52 = call noundef zeroext i1 @_ZL11is_concretel(i64 noundef %51)
  br i1 %52, label %53, label %58

53:                                               ; preds = %49
  %54 = load ptr, ptr %5, align 8
  %55 = load i64, ptr %54, align 8
  %56 = icmp slt i64 %55, 0
  br i1 %56, label %57, label %58

57:                                               ; preds = %53, %45
  store ptr null, ptr %3, align 8
  br label %61

58:                                               ; preds = %53, %49
  %59 = load ptr, ptr %7, align 8
  %60 = call noundef ptr @_ZL17look_through_nodePK4Node(ptr noundef %59)
  store ptr %60, ptr %3, align 8
  br label %61

61:                                               ; preds = %58, %57, %17
  %62 = load ptr, ptr %3, align 8
  ret ptr %62
}