; Function Attrs: mustprogress nounwind uwtable
define internal fastcc noundef ptr @_ZL19get_base_and_offsetPK8MachNodeRl(ptr noundef nonnull %0, ptr noundef nonnull align 8 dereferenceable(8) %1) unnamed_addr #0 {
  %3 = alloca ptr, align 8
  store ptr null, ptr %3, align 8
  store i64 0, ptr %1, align 8
  %4 = call noundef ptr @_ZNK8MachNode17get_base_and_dispERlRPK7TypePtr(ptr noundef nonnull align 8 dereferenceable(64) %0, ptr noundef nonnull align 8 dereferenceable(8) %1, ptr noundef nonnull align 8 dereferenceable(8) %3) #14
  %magicptr = ptrtoint ptr %4 to i64
  switch i64 %magicptr, label %5 [
    i64 -1, label %_ZL17look_through_nodePK4Node.exit
    i64 0, label %_ZL17look_through_nodePK4Node.exit
  ]

5:                                                ; preds = %2
  %6 = load i64, ptr %1, align 8
  %7 = icmp eq i64 %6, 0
  br i1 %7, label %8, label %thread-pre-split

8:                                                ; preds = %5
  %9 = getelementptr inbounds i8, ptr %4, i64 44
  %10 = load i32, ptr %9, align 4
  %11 = and i32 %10, 3
  %12 = icmp eq i32 %11, 2
  br i1 %12, label %13, label %.preheader.preheader

13:                                               ; preds = %8
  %14 = load ptr, ptr %4, align 8
  %15 = getelementptr inbounds i8, ptr %14, i64 328
  %16 = load ptr, ptr %15, align 8
  %17 = call noundef i32 %16(ptr noundef nonnull align 8 dereferenceable(64) %4) #14
  %18 = icmp eq i32 %17, 25
  br i1 %18, label %19, label %.thread-pre-split_crit_edge

.thread-pre-split_crit_edge:                      ; preds = %13
  %.pr.pre = load i64, ptr %1, align 8
  br label %thread-pre-split

19:                                               ; preds = %13
  %20 = load ptr, ptr %4, align 8
  %21 = getelementptr inbounds i8, ptr %20, i64 40
  %22 = load ptr, ptr %21, align 8
  %23 = call noundef ptr %22(ptr noundef nonnull align 8 dereferenceable(52) %4) #14
  %24 = getelementptr inbounds i8, ptr %23, i64 16
  %25 = load i32, ptr %24, align 8
  %26 = add i32 %25, -20
  %or.cond.i = icmp ult i32 %26, 3
  %27 = select i1 %or.cond.i, ptr %23, ptr null
  %28 = getelementptr inbounds i8, ptr %27, i64 36
  %29 = load i32, ptr %28, align 4
  %30 = sext i32 %29 to i64
  store i64 %30, ptr %1, align 8
  %31 = getelementptr inbounds i8, ptr %4, i64 8
  %32 = load ptr, ptr %31, align 8
  %33 = getelementptr inbounds i8, ptr %32, i64 8
  %34 = load ptr, ptr %33, align 8
  br label %thread-pre-split

thread-pre-split:                                 ; preds = %.thread-pre-split_crit_edge, %19, %5
  %35 = phi i64 [ %30, %19 ], [ %6, %5 ], [ %.pr.pre, %.thread-pre-split_crit_edge ]
  %.0 = phi ptr [ %34, %19 ], [ %4, %5 ], [ %4, %.thread-pre-split_crit_edge ]
  %36 = icmp eq i64 %35, -2000000000
  br i1 %36, label %_ZL17look_through_nodePK4Node.exit, label %37

37:                                               ; preds = %thread-pre-split
  %38 = add i64 %35, 1999999999
  %39 = icmp ult i64 %38, -2
  %40 = icmp slt i64 %35, 0
  %or.cond = and i1 %40, %39
  br i1 %or.cond, label %_ZL17look_through_nodePK4Node.exit, label %.preheader.preheader

.preheader.preheader:                             ; preds = %8, %37
  %.0.i.ph = phi ptr [ %4, %8 ], [ %.0, %37 ]
  br label %.preheader

.preheader:                                       ; preds = %.preheader.preheader, %66
  %.0.i = phi ptr [ %.1.i, %66 ], [ %.0.i.ph, %.preheader.preheader ]
  %.not.i = icmp eq ptr %.0.i, null
  br i1 %.not.i, label %_ZL17look_through_nodePK4Node.exit, label %41

41:                                               ; preds = %.preheader
  %42 = getelementptr inbounds i8, ptr %.0.i, i64 44
  %43 = load i32, ptr %42, align 4
  %44 = and i32 %43, 3
  %45 = icmp eq i32 %44, 2
  br i1 %45, label %46, label %_ZL17look_through_nodePK4Node.exit

46:                                               ; preds = %41
  %47 = load ptr, ptr %.0.i, align 8
  %48 = getelementptr inbounds i8, ptr %47, i64 328
  %49 = load ptr, ptr %48, align 8
  %50 = call noundef i32 %49(ptr noundef nonnull align 8 dereferenceable(64) %.0.i) #14
  %51 = icmp eq i32 %50, 63
  br i1 %51, label %52, label %57

52:                                               ; preds = %46
  %53 = getelementptr inbounds i8, ptr %.0.i, i64 8
  %54 = load ptr, ptr %53, align 8
  %55 = getelementptr inbounds i8, ptr %54, i64 8
  %56 = load ptr, ptr %55, align 8
  br label %57

57:                                               ; preds = %52, %46
  %.014.i = phi ptr [ %56, %52 ], [ %.0.i, %46 ]
  %58 = load i32, ptr %42, align 4
  %59 = and i32 %58, 31
  %60 = icmp eq i32 %59, 18
  br i1 %60, label %61, label %66

61:                                               ; preds = %57
  %62 = getelementptr inbounds i8, ptr %.0.i, i64 8
  %63 = load ptr, ptr %62, align 8
  %64 = getelementptr inbounds i8, ptr %63, i64 8
  %65 = load ptr, ptr %64, align 8
  br label %66

66:                                               ; preds = %61, %57
  %.1.i = phi ptr [ %65, %61 ], [ %.014.i, %57 ]
  %67 = icmp eq ptr %.1.i, %.0.i
  %68 = icmp eq ptr %.1.i, null
  %or.cond.i20 = or i1 %67, %68
  br i1 %or.cond.i20, label %_ZL17look_through_nodePK4Node.exit, label %.preheader, !llvm.loop !6

_ZL17look_through_nodePK4Node.exit:               ; preds = %66, %41, %.preheader, %thread-pre-split, %37, %2, %2
  %.017 = phi ptr [ null, %2 ], [ null, %2 ], [ null, %37 ], [ null, %thread-pre-split ], [ %.0.i, %66 ], [ %.0.i, %41 ], [ null, %.preheader ]
  ret ptr %.017
}